target datalayout = "e-m:e-p270:32:32-p271:32:32-p272:64:64-i64:64-i128:128-f80:128-n8:16:32:64-S128"
target triple = "x86_64-pc-linux-gnu"

%struct.stat = type { i64, i64, i64, i32, i32, i32, i32, i64, i64, i64, i64, %struct.timespec, %struct.timespec, %struct.timespec, [3 x i64] }
%struct.timespec = type { i64, i64 }

; Function Attrs: mustprogress nounwind uwtable
define dso_local noundef zeroext i1 @_ZN3igl6is_dirEPKc(ptr noundef %0) #0 {
  %2 = alloca i1, align 1
  %3 = alloca ptr, align 8
  %4 = alloca %struct.stat, align 8
  %5 = alloca i32, align 4
  store ptr %0, ptr %3, align 8, !tbaa !4
  call void @llvm.lifetime.start.p0(i64 144, ptr %4) #3
  %6 = load ptr, ptr %3, align 8, !tbaa !4
  %7 = call i32 @stat(ptr noundef %6, ptr noundef %4) #3
  %8 = icmp ne i32 %7, 0
  br i1 %8, label %9, label %10

9:                                                ; preds = %1
  store i1 false, ptr %2, align 1
  store i32 1, ptr %5, align 4
  br label %15

10:                                               ; preds = %1
  %11 = getelementptr inbounds nuw %struct.stat, ptr %4, i32 0, i32 3
  %12 = load i32, ptr %11, align 8, !tbaa !9
  %13 = and i32 %12, 61440
  %14 = icmp eq i32 %13, 16384
  store i1 %14, ptr %2, align 1
  store i32 1, ptr %5, align 4
  br label %15

15:                                               ; preds = %10, %9
  call void @llvm.lifetime.end.p0(i64 144, ptr %4) #3
  %16 = load i1, ptr %2, align 1
  ret i1 %16
}

; Function Attrs: nocallback nofree nosync nounwind willreturn memory(argmem: readwrite)
declare void @llvm.lifetime.start.p0(i64 immarg, ptr captures(none)) #1

; Function Attrs: nounwind
declare i32 @stat(ptr noundef, ptr noundef) #2

; Function Attrs: nocallback nofree nosync nounwind willreturn memory(argmem: readwrite)
declare void @llvm.lifetime.end.p0(i64 immarg, ptr captures(none)) #1


!llvm.module.flags = !{!0, !1, !2, !3}

!0 = !{i32 1, !"wchar_size", i32 4}
!1 = !{i32 8, !"PIC Level", i32 2}
!2 = !{i32 7, !"PIE Level", i32 2}
!3 = !{i32 7, !"uwtable", i32 2}
!4 = !{!5, !5, i64 0}
!5 = !{!"p1 omnipotent char", !6, i64 0}
!6 = !{!"any pointer", !7, i64 0}
!7 = !{!"omnipotent char", !8, i64 0}
!8 = !{!"Simple C++ TBAA"}
!9 = !{!10, !12, i64 24}
!10 = !{!"_ZTS4stat", !11, i64 0, !11, i64 8, !11, i64 16, !12, i64 24, !12, i64 28, !12, i64 32, !12, i64 36, !11, i64 40, !11, i64 48, !11, i64 56, !11, i64 64, !13, i64 72, !13, i64 88, !13, i64 104, !7, i64 120}
!11 = !{!"long", !7, i64 0}
!12 = !{!"int", !7, i64 0}
!13 = !{!"_ZTS8timespec", !11, i64 0, !11, i64 8}
